; Function Attrs: nounwind uwtable
define internal void @js_worker_finalizer(ptr noundef %0, i64 %1, i64 %2) #0 {
  %4 = load i32, ptr @js_worker_class_id, align 4
  %5 = tail call ptr @JS_GetOpaque(i64 %1, i64 %2, i32 noundef %4) #29
  %.not = icmp eq ptr %5, null
  br i1 %.not, label %31, label %6

6:                                                ; preds = %3
  %7 = load ptr, ptr %5, align 8
  tail call fastcc void @js_free_message_pipe(ptr noundef %7)
  %8 = getelementptr inbounds i8, ptr %5, i64 8
  %9 = load ptr, ptr %8, align 8
  tail call fastcc void @js_free_message_pipe(ptr noundef %9)
  %10 = getelementptr inbounds i8, ptr %5, i64 16
  %11 = load ptr, ptr %10, align 8
  %.not.i = icmp eq ptr %11, null
  br i1 %.not.i, label %js_free_port.exit, label %12

12:                                               ; preds = %6
  %13 = getelementptr inbounds i8, ptr %11, i64 16
  %14 = load ptr, ptr %13, align 8
  tail call fastcc void @js_free_message_pipe(ptr noundef %14)
  %15 = getelementptr inbounds i8, ptr %11, i64 24
  %16 = load i64, ptr %15, align 8
  %17 = getelementptr inbounds i8, ptr %11, i64 32
  %18 = load i64, ptr %17, align 8
  %19 = trunc i64 %18 to i32
  %20 = icmp ugt i32 %19, -12
  br i1 %20, label %21, label %JS_FreeValueRT.exit.i

21:                                               ; preds = %12
  %22 = inttoptr i64 %16 to ptr
  %23 = load i32, ptr %22, align 4
  %24 = add i32 %23, -1
  store i32 %24, ptr %22, align 4
  %25 = icmp slt i32 %24, 1
  br i1 %25, label %26, label %JS_FreeValueRT.exit.i

26:                                               ; preds = %21
  tail call void @__JS_FreeValueRT(ptr noundef %0, i64 %16, i64 %18) #29
  br label %JS_FreeValueRT.exit.i

JS_FreeValueRT.exit.i:                            ; preds = %26, %21, %12
  %27 = load ptr, ptr %11, align 8
  %28 = getelementptr inbounds i8, ptr %11, i64 8
  %29 = load ptr, ptr %28, align 8
  %30 = getelementptr inbounds i8, ptr %27, i64 8
  store ptr %29, ptr %30, align 8
  store ptr %27, ptr %29, align 8
  tail call void @llvm.memset.p0.i64(ptr noundef nonnull align 8 dereferenceable(16) %11, i8 0, i64 16, i1 false)
  tail call void @js_free_rt(ptr noundef %0, ptr noundef nonnull %11) #29
  br label %js_free_port.exit

js_free_port.exit:                                ; preds = %6, %JS_FreeValueRT.exit.i
  tail call void @js_free_rt(ptr noundef %0, ptr noundef nonnull %5) #29
  br label %31

31:                                               ; preds = %js_free_port.exit, %3
  ret void
}